target datalayout = "e-m:e-p270:32:32-p271:32:32-p272:64:64-i64:64-i128:128-f80:128-n8:16:32:64-S128"
target triple = "x86_64-pc-linux-gnu"

; Function Attrs: nounwind uwtable
define void @Gia_ManFraigSweepPerform(ptr noundef %0, ptr noundef %1) #0 {
  %3 = alloca ptr, align 8
  %4 = alloca ptr, align 8
  %5 = alloca ptr, align 8
  store ptr %0, ptr %3, align 8, !tbaa !3
  store ptr %1, ptr %4, align 8, !tbaa !90
  call void @llvm.lifetime.start.p0(i64 8, ptr %5) #11
  %6 = load ptr, ptr %3, align 8, !tbaa !3
  %7 = call ptr @Gia_ManToAigSimple(ptr noundef %6)
  store ptr %7, ptr %5, align 8, !tbaa !91
  %8 = load ptr, ptr %5, align 8, !tbaa !91
  %9 = load ptr, ptr %4, align 8, !tbaa !90
  call void @Dch_ComputeEquivalences(ptr noundef %8, ptr noundef %9)
  %10 = load ptr, ptr %5, align 8, !tbaa !91
  %11 = load ptr, ptr %3, align 8, !tbaa !3
  call void @Gia_ManReprFromAigRepr(ptr noundef %10, ptr noundef %11)
  %12 = load ptr, ptr %5, align 8, !tbaa !91
  call void @Aig_ManStop(ptr noundef %12)
  call void @llvm.lifetime.end.p0(i64 8, ptr %5) #11
  ret void
}

; Function Attrs: nounwind uwtable
define ptr @Gia_ManFraigSweepSimple(ptr noundef %0, ptr noundef %1) #0 {
  %3 = alloca ptr, align 8
  %4 = alloca ptr, align 8
  %5 = alloca ptr, align 8
  store ptr %0, ptr %3, align 8, !tbaa !3
  store ptr %1, ptr %4, align 8, !tbaa !90
  call void @llvm.lifetime.start.p0(i64 8, ptr %5) #11
  %6 = load ptr, ptr %3, align 8, !tbaa !3
  %7 = load ptr, ptr %4, align 8, !tbaa !90
  call void @Gia_ManFraigSweepPerform(ptr noundef %6, ptr noundef %7)
  %8 = load ptr, ptr %3, align 8, !tbaa !3
  %9 = call ptr @Gia_ManEquivReduce(ptr noundef %8, i32 noundef 1, i32 noundef 0, i32 noundef 0, i32 noundef 0)
  store ptr %9, ptr %5, align 8, !tbaa !3
  %10 = load ptr, ptr %5, align 8, !tbaa !3
  %11 = icmp eq ptr %10, null
  br i1 %11, label %12, label %15

12:                                               ; preds = %2
  %13 = load ptr, ptr %3, align 8, !tbaa !3
  %14 = call ptr @Gia_ManDup(ptr noundef %13)
  store ptr %14, ptr %5, align 8, !tbaa !3
  br label %15

15:                                               ; preds = %12, %2
  %16 = load ptr, ptr %5, align 8, !tbaa !3
  %17 = load ptr, ptr %3, align 8, !tbaa !3
  call void @Gia_ManTransferTiming(ptr noundef %16, ptr noundef %17)
  %18 = load ptr, ptr %5, align 8, !tbaa !3
  call void @llvm.lifetime.end.p0(i64 8, ptr %5) #11
  ret ptr %18
}