; Function Attrs: nounwind uwtable
define noundef ptr @Gia_ManFraigSweepSimple(ptr noundef %0, ptr noundef %1) local_unnamed_addr #0 {
  %3 = tail call ptr @Gia_ManToAigSimple(ptr noundef %0) #19
  tail call void @Dch_ComputeEquivalences(ptr noundef %3, ptr noundef %1) #19
  tail call void @Gia_ManReprFromAigRepr(ptr noundef %3, ptr noundef %0) #19
  tail call void @Aig_ManStop(ptr noundef %3) #19
  %4 = tail call ptr @Gia_ManEquivReduce(ptr noundef %0, i32 noundef 1, i32 noundef 0, i32 noundef 0, i32 noundef 0) #19
  %5 = icmp eq ptr %4, null
  br i1 %5, label %6, label %8

6:                                                ; preds = %2
  %7 = tail call ptr @Gia_ManDup(ptr noundef %0) #19
  br label %8

8:                                                ; preds = %6, %2
  %.0 = phi ptr [ %7, %6 ], [ %4, %2 ]
  tail call void @Gia_ManTransferTiming(ptr noundef %.0, ptr noundef %0) #19
  ret ptr %.0
}